; Function Attrs: mustprogress uwtable
define void @_ZN32pxrInternal_v0_24__pxrReserved__18HdUnitTestDelegate16_GetPrimvarValueERKNS_7SdfPathERKNS_7TfTokenE(ptr dead_on_unwind noalias writable sret(%"class.pxrInternal_v0_24__pxrReserved__::VtValue") align 8 %0, ptr noundef nonnull align 8 dereferenceable(768) %1, ptr noundef nonnull align 4 dereferenceable(8) %2, ptr nocapture noundef nonnull readonly align 8 dereferenceable(8) %3) local_unnamed_addr #0 align 2 personality ptr @__gxx_personality_v0 {
  %5 = alloca %"class.__gnu_cxx::__normal_iterator", align 8
  %6 = alloca %"class.pxrInternal_v0_24__pxrReserved__::TfCallContext", align 8
  store ptr null, ptr %5, align 8
  %7 = call noundef zeroext i1 @_ZN32pxrInternal_v0_24__pxrReserved__18HdUnitTestDelegate12_FindPrimvarERKNS_7SdfPathERKNS_7TfTokenEPN9__gnu_cxx17__normal_iteratorIPNS0_8_PrimvarESt6vectorIS9_SaIS9_EEEE(ptr noundef nonnull align 8 dereferenceable(768) %1, ptr noundef nonnull align 4 dereferenceable(8) %2, ptr noundef nonnull align 8 dereferenceable(8) %3, ptr noundef nonnull %5)
  br i1 %7, label %8, label %12

8:                                                ; preds = %4
  %9 = load ptr, ptr %5, align 8
  %10 = getelementptr inbounds nuw i8, ptr %9, i64 8
  %11 = getelementptr inbounds nuw i8, ptr %0, i64 8
  store ptr null, ptr %11, align 8
  call void @_ZN32pxrInternal_v0_24__pxrReserved__7VtValue5_CopyERKS0_RS0_(ptr noundef nonnull align 8 dereferenceable(16) %10, ptr noundef nonnull align 8 dereferenceable(16) %0)
  br label %27

12:                                               ; preds = %4
  store ptr @.str.4, ptr %6, align 8
  %13 = getelementptr inbounds nuw i8, ptr %6, i64 8
  store ptr @__func__._ZN32pxrInternal_v0_24__pxrReserved__18HdUnitTestDelegate16_GetPrimvarValueERKNS_7SdfPathERKNS_7TfTokenE, ptr %13, align 8
  %14 = getelementptr inbounds nuw i8, ptr %6, i64 16
  store i64 2057, ptr %14, align 8
  %15 = getelementptr inbounds nuw i8, ptr %6, i64 24
  store ptr @__PRETTY_FUNCTION__._ZN32pxrInternal_v0_24__pxrReserved__18HdUnitTestDelegate16_GetPrimvarValueERKNS_7SdfPathERKNS_7TfTokenE, ptr %15, align 8
  %16 = getelementptr inbounds nuw i8, ptr %6, i64 32
  store i8 0, ptr %16, align 8
  %17 = call noundef ptr @_ZNK32pxrInternal_v0_24__pxrReserved__7SdfPath7GetTextEv(ptr noundef nonnull align 4 dereferenceable(8) %2)
  %18 = load ptr, ptr %3, align 8
  %19 = ptrtoint ptr %18 to i64
  %20 = and i64 %19, -8
  %.not.i = icmp eq i64 %20, 0
  br i1 %.not.i, label %_ZNK32pxrInternal_v0_24__pxrReserved__7TfToken7GetTextEv.exit, label %21

21:                                               ; preds = %12
  %22 = inttoptr i64 %20 to ptr
  %23 = getelementptr inbounds nuw i8, ptr %22, i64 16
  %24 = call noundef ptr @_ZNKSt7__cxx1112basic_stringIcSt11char_traitsIcESaIcEE5c_strEv(ptr noundef nonnull align 8 dereferenceable(32) %23) #22
  br label %_ZNK32pxrInternal_v0_24__pxrReserved__7TfToken7GetTextEv.exit

_ZNK32pxrInternal_v0_24__pxrReserved__7TfToken7GetTextEv.exit: ; preds = %12, %21
  %25 = phi ptr [ %24, %21 ], [ @.str.88, %12 ]
  call void (ptr, ptr, ...) @_ZN32pxrInternal_v0_24__pxrReserved__20Tf_PostWarningHelperERKNS_13TfCallContextEPKcz(ptr noundef nonnull align 8 dereferenceable(33) %6, ptr noundef nonnull @.str.18, ptr noundef %17, ptr noundef %25)
  %26 = getelementptr inbounds nuw i8, ptr %0, i64 8
  store ptr null, ptr %26, align 8
  br label %27

27:                                               ; preds = %_ZNK32pxrInternal_v0_24__pxrReserved__7TfToken7GetTextEv.exit, %8
  ret void
}